target datalayout = "e-m:e-p270:32:32-p271:32:32-p272:64:64-i64:64-i128:128-f80:128-n8:16:32:64-S128"
target triple = "x86_64-pc-linux-gnu"

; Function Attrs: mustprogress nounwind uwtable
define void @_ZN4Cube15FactorEdgeIndexEiRiS0_S0_(i32 noundef %0, ptr noundef nonnull align 4 dereferenceable(4) %1, ptr noundef nonnull align 4 dereferenceable(4) %2, ptr noundef nonnull align 4 dereferenceable(4) %3) #1 align 2 {
  %5 = alloca i32, align 4
  %6 = alloca ptr, align 8
  %7 = alloca ptr, align 8
  %8 = alloca ptr, align 8
  store i32 %0, ptr %5, align 4
  store ptr %1, ptr %6, align 8
  store ptr %2, ptr %7, align 8
  store ptr %3, ptr %8, align 8
  %9 = load i32, ptr %5, align 4
  %10 = ashr i32 %9, 2
  %11 = load ptr, ptr %6, align 8
  store i32 %10, ptr %11, align 4
  %12 = load i32, ptr %5, align 4
  %13 = and i32 %12, 1
  %14 = load ptr, ptr %7, align 8
  store i32 %13, ptr %14, align 4
  %15 = load i32, ptr %5, align 4
  %16 = and i32 %15, 2
  %17 = ashr i32 %16, 1
  %18 = load ptr, ptr %8, align 8
  store i32 %17, ptr %18, align 4
  ret void
}

; Function Attrs: mustprogress nounwind uwtable
define noundef zeroext i1 @_ZN4Cube12IsEdgeCornerEii(i32 noundef %0, i32 noundef %1) #1 align 2 {
  %3 = alloca i1, align 1
  %4 = alloca i32, align 4
  %5 = alloca i32, align 4
  %6 = alloca i32, align 4
  %7 = alloca i32, align 4
  %8 = alloca i32, align 4
  store i32 %0, ptr %4, align 4
  store i32 %1, ptr %5, align 4
  %9 = load i32, ptr %5, align 4
  call void @_ZN4Cube15FactorEdgeIndexEiRiS0_S0_(i32 noundef %9, ptr noundef nonnull align 4 dereferenceable(4) %6, ptr noundef nonnull align 4 dereferenceable(4) %7, ptr noundef nonnull align 4 dereferenceable(4) %8)
  %10 = load i32, ptr %6, align 4
  switch i32 %10, label %53 [
    i32 0, label %11
    i32 1, label %25
    i32 2, label %39
  ]

11:                                               ; preds = %2
  %12 = load i32, ptr %4, align 4
  %13 = and i32 %12, 2
  %14 = load i32, ptr %7, align 4
  %15 = shl i32 %14, 1
  %16 = icmp eq i32 %13, %15
  br i1 %16, label %17, label %23

17:                                               ; preds = %11
  %18 = load i32, ptr %4, align 4
  %19 = and i32 %18, 4
  %20 = load i32, ptr %8, align 4
  %21 = shl i32 %20, 2
  %22 = icmp eq i32 %19, %21
  br label %23

23:                                               ; preds = %17, %11
  %24 = phi i1 [ false, %11 ], [ %22, %17 ]
  store i1 %24, ptr %3, align 1
  br label %54

25:                                               ; preds = %2
  %26 = load i32, ptr %4, align 4
  %27 = and i32 %26, 1
  %28 = load i32, ptr %7, align 4
  %29 = shl i32 %28, 0
  %30 = icmp eq i32 %27, %29
  br i1 %30, label %31, label %37

31:                                               ; preds = %25
  %32 = load i32, ptr %4, align 4
  %33 = and i32 %32, 4
  %34 = load i32, ptr %8, align 4
  %35 = shl i32 %34, 2
  %36 = icmp eq i32 %33, %35
  br label %37

37:                                               ; preds = %31, %25
  %38 = phi i1 [ false, %25 ], [ %36, %31 ]
  store i1 %38, ptr %3, align 1
  br label %54

39:                                               ; preds = %2
  %40 = load i32, ptr %4, align 4
  %41 = and i32 %40, 4
  %42 = load i32, ptr %7, align 4
  %43 = shl i32 %42, 2
  %44 = icmp eq i32 %41, %43
  br i1 %44, label %45, label %51

45:                                               ; preds = %39
  %46 = load i32, ptr %4, align 4
  %47 = and i32 %46, 2
  %48 = load i32, ptr %8, align 4
  %49 = shl i32 %48, 1
  %50 = icmp eq i32 %47, %49
  br label %51

51:                                               ; preds = %45, %39
  %52 = phi i1 [ false, %39 ], [ %50, %45 ]
  store i1 %52, ptr %3, align 1
  br label %54

53:                                               ; preds = %2
  store i1 false, ptr %3, align 1
  br label %54

54:                                               ; preds = %53, %51, %37, %23
  %55 = load i1, ptr %3, align 1
  ret i1 %55
}