; Function Attrs: mustprogress nofree norecurse nosync nounwind willreturn memory(none) uwtable
define noundef zeroext i1 @_ZN4Cube12IsEdgeCornerEii(i32 noundef %0, i32 noundef %1) local_unnamed_addr #0 align 2 {
  %3 = ashr i32 %1, 2
  %4 = and i32 %1, 1
  %5 = lshr i32 %1, 1
  %6 = and i32 %5, 1
  switch i32 %3, label %30 [
    i32 0, label %7
    i32 1, label %15
    i32 2, label %22
  ]

7:                                                ; preds = %2
  %8 = and i32 %0, 2
  %9 = shl nuw nsw i32 %4, 1
  %10 = icmp eq i32 %8, %9
  %11 = and i32 %0, 4
  %12 = shl nuw nsw i32 %6, 2
  %13 = icmp eq i32 %11, %12
  %14 = select i1 %10, i1 %13, i1 false
  br label %30

15:                                               ; preds = %2
  %16 = and i32 %0, 1
  %17 = icmp eq i32 %16, %4
  %18 = and i32 %0, 4
  %19 = shl nuw nsw i32 %6, 2
  %20 = icmp eq i32 %18, %19
  %21 = select i1 %17, i1 %20, i1 false
  br label %30

22:                                               ; preds = %2
  %23 = and i32 %0, 4
  %24 = shl nuw nsw i32 %4, 2
  %25 = icmp eq i32 %23, %24
  %26 = and i32 %0, 2
  %27 = shl nuw nsw i32 %6, 1
  %28 = icmp eq i32 %26, %27
  %29 = select i1 %25, i1 %28, i1 false
  br label %30

30:                                               ; preds = %2, %22, %15, %7
  %.0 = phi i1 [ %29, %22 ], [ %21, %15 ], [ %14, %7 ], [ false, %2 ]
  ret i1 %.0
}